target datalayout = "e-m:e-p270:32:32-p271:32:32-p272:64:64-i64:64-i128:128-f80:128-n8:16:32:64-S128"
target triple = "x86_64-pc-linux-gnu"

%struct._PyJumpTargetLabel = type { i32 }
%struct._PyCfgBuilder = type { ptr, ptr, ptr, %struct._PyJumpTargetLabel }

; Function Attrs: nounwind uwtable
define hidden i32 @_PyCfg_JumpLabelsToTargets(ptr noundef %0) #0 {
  %2 = alloca i32, align 4
  %3 = alloca ptr, align 8
  store ptr %0, ptr %3, align 8, !tbaa !4
  %4 = load ptr, ptr %3, align 8, !tbaa !4
  %5 = getelementptr inbounds nuw %struct._PyCfgBuilder, ptr %4, i32 0, i32 0
  %6 = load ptr, ptr %5, align 8, !tbaa !15
  %7 = call i32 @translate_jump_labels_to_targets(ptr noundef %6)
  %8 = icmp eq i32 %7, -1
  br i1 %8, label %9, label %10

9:                                                ; preds = %1
  store i32 -1, ptr %2, align 4
  br label %18

10:                                               ; preds = %1
  %11 = load ptr, ptr %3, align 8, !tbaa !4
  %12 = getelementptr inbounds nuw %struct._PyCfgBuilder, ptr %11, i32 0, i32 0
  %13 = load ptr, ptr %12, align 8, !tbaa !15
  %14 = call i32 @label_exception_targets(ptr noundef %13)
  %15 = icmp eq i32 %14, -1
  br i1 %15, label %16, label %17

16:                                               ; preds = %10
  store i32 -1, ptr %2, align 4
  br label %18

17:                                               ; preds = %10
  store i32 0, ptr %2, align 4
  br label %18

18:                                               ; preds = %17, %16, %9
  %19 = load i32, ptr %2, align 4
  ret i32 %19
}