; Function Attrs: nounwind uwtable
define hidden range(i32 -1, 1) i32 @_PyCfg_JumpLabelsToTargets(ptr noundef readonly captures(none) %0) local_unnamed_addr #0 {
  %2 = load ptr, ptr %0, align 8, !tbaa !18
  %3 = tail call fastcc i32 @translate_jump_labels_to_targets(ptr noundef %2)
  %4 = icmp eq i32 %3, -1
  br i1 %4, label %9, label %5

5:                                                ; preds = %1
  %6 = load ptr, ptr %0, align 8, !tbaa !18
  %7 = tail call fastcc i32 @label_exception_targets(ptr noundef %6)
  %8 = icmp eq i32 %7, -1
  %. = sext i1 %8 to i32
  br label %9

9:                                                ; preds = %5, %1
  %.0 = phi i32 [ -1, %1 ], [ %., %5 ]
  ret i32 %.0
}